ARM GAS  /var/folders/3x/w4njr7bn61lgchzhylxd3k6w0000gn/T//ccBzkz5T.s 			page 1


   1              		.cpu cortex-m4
   2              		.eabi_attribute 27, 1
   3              		.eabi_attribute 28, 1
   4              		.eabi_attribute 20, 1
   5              		.eabi_attribute 21, 1
   6              		.eabi_attribute 23, 3
   7              		.eabi_attribute 24, 1
   8              		.eabi_attribute 25, 1
   9              		.eabi_attribute 26, 1
  10              		.eabi_attribute 30, 1
  11              		.eabi_attribute 34, 1
  12              		.eabi_attribute 18, 4
  13              		.file	"stm32f4xx_it.c"
  14              		.text
  15              	.Ltext0:
  16              		.cfi_sections	.debug_frame
  17              		.section	.text.NMI_Handler,"ax",%progbits
  18              		.align	1
  19              		.global	NMI_Handler
  20              		.arch armv7e-m
  21              		.syntax unified
  22              		.thumb
  23              		.thumb_func
  24              		.fpu fpv4-sp-d16
  26              	NMI_Handler:
  27              	.LFB126:
  28              		.file 1 "User/stm32f4xx_it.c"
   1:User/stm32f4xx_it.c **** /**
   2:User/stm32f4xx_it.c ****   ******************************************************************************
   3:User/stm32f4xx_it.c ****   * @file    Project/STM32F4xx_StdPeriph_Templates/stm32f4xx_it.c 
   4:User/stm32f4xx_it.c ****   * @author  MCD Application Team
   5:User/stm32f4xx_it.c ****   * @version V1.8.0
   6:User/stm32f4xx_it.c ****   * @date    04-November-2016
   7:User/stm32f4xx_it.c ****   * @brief   Main Interrupt Service Routines.
   8:User/stm32f4xx_it.c ****   *          This file provides template for all exceptions handler and 
   9:User/stm32f4xx_it.c ****   *          peripherals interrupt service routine.
  10:User/stm32f4xx_it.c ****   ******************************************************************************
  11:User/stm32f4xx_it.c ****   * @attention
  12:User/stm32f4xx_it.c ****   *
  13:User/stm32f4xx_it.c ****   * <h2><center>&copy; COPYRIGHT 2016 STMicroelectronics</center></h2>
  14:User/stm32f4xx_it.c ****   *
  15:User/stm32f4xx_it.c ****   * Licensed under MCD-ST Liberty SW License Agreement V2, (the "License");
  16:User/stm32f4xx_it.c ****   * You may not use this file except in compliance with the License.
  17:User/stm32f4xx_it.c ****   * You may obtain a copy of the License at:
  18:User/stm32f4xx_it.c ****   *
  19:User/stm32f4xx_it.c ****   *        http://www.st.com/software_license_agreement_liberty_v2
  20:User/stm32f4xx_it.c ****   *
  21:User/stm32f4xx_it.c ****   * Unless required by applicable law or agreed to in writing, software 
  22:User/stm32f4xx_it.c ****   * distributed under the License is distributed on an "AS IS" BASIS, 
  23:User/stm32f4xx_it.c ****   * WITHOUT WARRANTIES OR CONDITIONS OF ANY KIND, either express or implied.
  24:User/stm32f4xx_it.c ****   * See the License for the specific language governing permissions and
  25:User/stm32f4xx_it.c ****   * limitations under the License.
  26:User/stm32f4xx_it.c ****   *
  27:User/stm32f4xx_it.c ****   ******************************************************************************
  28:User/stm32f4xx_it.c ****   */
  29:User/stm32f4xx_it.c **** 
  30:User/stm32f4xx_it.c **** /* Includes ------------------------------------------------------------------*/
ARM GAS  /var/folders/3x/w4njr7bn61lgchzhylxd3k6w0000gn/T//ccBzkz5T.s 			page 2


  31:User/stm32f4xx_it.c **** #include "stm32f4xx_it.h"
  32:User/stm32f4xx_it.c **** // #include "main.h"
  33:User/stm32f4xx_it.c **** #include <stdio.h>
  34:User/stm32f4xx_it.c **** 
  35:User/stm32f4xx_it.c **** #define ERR_INFO "\r\nEnter HardFault_Handler, System Halt.\r\n"
  36:User/stm32f4xx_it.c **** 
  37:User/stm32f4xx_it.c **** /** @addtogroup Template_Project
  38:User/stm32f4xx_it.c ****   * @{
  39:User/stm32f4xx_it.c ****   */
  40:User/stm32f4xx_it.c **** 
  41:User/stm32f4xx_it.c **** /* Private typedef -----------------------------------------------------------*/
  42:User/stm32f4xx_it.c **** /* Private define ------------------------------------------------------------*/
  43:User/stm32f4xx_it.c **** /* Private macro -------------------------------------------------------------*/
  44:User/stm32f4xx_it.c **** /* Private variables ---------------------------------------------------------*/
  45:User/stm32f4xx_it.c **** /* Private function prototypes -----------------------------------------------*/
  46:User/stm32f4xx_it.c **** /* Private functions ---------------------------------------------------------*/
  47:User/stm32f4xx_it.c **** 
  48:User/stm32f4xx_it.c **** /******************************************************************************/
  49:User/stm32f4xx_it.c **** /*            Cortex-M4 Processor Exceptions Handlers                         */
  50:User/stm32f4xx_it.c **** /******************************************************************************/
  51:User/stm32f4xx_it.c **** 
  52:User/stm32f4xx_it.c **** /**
  53:User/stm32f4xx_it.c ****   * @brief  This function handles NMI exception.
  54:User/stm32f4xx_it.c ****   * @param  None
  55:User/stm32f4xx_it.c ****   * @retval None
  56:User/stm32f4xx_it.c ****   */
  57:User/stm32f4xx_it.c **** void NMI_Handler(void)
  58:User/stm32f4xx_it.c **** {
  29              		.loc 1 58 1 view -0
  30              		.cfi_startproc
  31              		@ args = 0, pretend = 0, frame = 0
  32              		@ frame_needed = 0, uses_anonymous_args = 0
  33              		@ link register save eliminated.
  59:User/stm32f4xx_it.c **** }
  34              		.loc 1 59 1 view .LVU1
  35 0000 7047     		bx	lr
  36              		.cfi_endproc
  37              	.LFE126:
  39              		.section	.text.HardFault_Handler,"ax",%progbits
  40              		.align	1
  41              		.global	HardFault_Handler
  42              		.syntax unified
  43              		.thumb
  44              		.thumb_func
  45              		.fpu fpv4-sp-d16
  47              	HardFault_Handler:
  48              	.LFB127:
  60:User/stm32f4xx_it.c **** 
  61:User/stm32f4xx_it.c **** /**
  62:User/stm32f4xx_it.c ****   * @brief  This function handles Hard Fault exception.
  63:User/stm32f4xx_it.c ****   * @param  None
  64:User/stm32f4xx_it.c ****   * @retval None
  65:User/stm32f4xx_it.c ****   */
  66:User/stm32f4xx_it.c **** void HardFault_Handler(void)
  67:User/stm32f4xx_it.c **** { 
  49              		.loc 1 67 1 view -0
  50              		.cfi_startproc
ARM GAS  /var/folders/3x/w4njr7bn61lgchzhylxd3k6w0000gn/T//ccBzkz5T.s 			page 3


  51              		@ args = 0, pretend = 0, frame = 0
  52              		@ frame_needed = 0, uses_anonymous_args = 0
  53              		@ link register save eliminated.
  68:User/stm32f4xx_it.c ****   #if 1
  69:User/stm32f4xx_it.c ****   const char *pError = ERR_INFO;
  54              		.loc 1 69 3 view .LVU3
  55              	.LVL0:
  70:User/stm32f4xx_it.c ****   uint8_t i;
  56              		.loc 1 70 3 view .LVU4
  71:User/stm32f4xx_it.c **** 
  72:User/stm32f4xx_it.c ****   for (i = 0; i < sizeof(ERR_INFO); i++)
  57              		.loc 1 72 3 view .LVU5
  58              		.loc 1 72 10 is_stmt 0 view .LVU6
  59 0000 0022     		movs	r2, #0
  60              		.loc 1 72 3 view .LVU7
  61 0002 0AE0     		b	.L3
  62              	.LVL1:
  63              	.L5:
  73:User/stm32f4xx_it.c ****   {
  74:User/stm32f4xx_it.c ****      USART2->DR = pError[i];
  64              		.loc 1 74 6 is_stmt 1 view .LVU8
  65              		.loc 1 74 25 is_stmt 0 view .LVU9
  66 0004 064B     		ldr	r3, .L7
  67 0006 995C     		ldrb	r1, [r3, r2]	@ zero_extendqisi2
  68              		.loc 1 74 17 view .LVU10
  69 0008 064B     		ldr	r3, .L7+4
  70 000a 9980     		strh	r1, [r3, #4]	@ movhi
  75:User/stm32f4xx_it.c ****       /* 等待发送结束 */
  76:User/stm32f4xx_it.c ****      while ((USART2->SR & USART_FLAG_TC) == (uint16_t)RESET);
  71              		.loc 1 76 6 is_stmt 1 view .LVU11
  72              	.L4:
  73              		.loc 1 76 61 discriminator 1 view .LVU12
  74              		.loc 1 76 20 is_stmt 0 discriminator 1 view .LVU13
  75 000c 054B     		ldr	r3, .L7+4
  76 000e 1B88     		ldrh	r3, [r3]
  77              		.loc 1 76 12 discriminator 1 view .LVU14
  78 0010 13F0400F 		tst	r3, #64
  79 0014 FAD0     		beq	.L4
  72:User/stm32f4xx_it.c ****   {
  80              		.loc 1 72 38 discriminator 2 view .LVU15
  81 0016 0132     		adds	r2, r2, #1
  82              	.LVL2:
  72:User/stm32f4xx_it.c ****   {
  83              		.loc 1 72 38 discriminator 2 view .LVU16
  84 0018 D2B2     		uxtb	r2, r2
  85              	.LVL3:
  86              	.L3:
  72:User/stm32f4xx_it.c ****   {
  87              		.loc 1 72 3 discriminator 1 view .LVU17
  88 001a 292A     		cmp	r2, #41
  89 001c F2D9     		bls	.L5
  90              	.L6:
  77:User/stm32f4xx_it.c ****   }
  78:User/stm32f4xx_it.c ****   #endif
  79:User/stm32f4xx_it.c ****   /* Go to infinite loop when Hard Fault exception occurs */
  80:User/stm32f4xx_it.c ****   while (1)
  91              		.loc 1 80 3 is_stmt 1 discriminator 1 view .LVU18
ARM GAS  /var/folders/3x/w4njr7bn61lgchzhylxd3k6w0000gn/T//ccBzkz5T.s 			page 4


  81:User/stm32f4xx_it.c ****   {
  82:User/stm32f4xx_it.c ****   }
  92              		.loc 1 82 3 discriminator 1 view .LVU19
  93 001e FEE7     		b	.L6
  94              	.L8:
  95              		.align	2
  96              	.L7:
  97 0020 00000000 		.word	.LC0
  98 0024 00440040 		.word	1073759232
  99              		.cfi_endproc
 100              	.LFE127:
 102              		.section	.text.MemManage_Handler,"ax",%progbits
 103              		.align	1
 104              		.global	MemManage_Handler
 105              		.syntax unified
 106              		.thumb
 107              		.thumb_func
 108              		.fpu fpv4-sp-d16
 110              	MemManage_Handler:
 111              	.LFB128:
  83:User/stm32f4xx_it.c **** }
  84:User/stm32f4xx_it.c **** 
  85:User/stm32f4xx_it.c **** /**
  86:User/stm32f4xx_it.c ****   * @brief  This function handles Memory Manage exception.
  87:User/stm32f4xx_it.c ****   * @param  None
  88:User/stm32f4xx_it.c ****   * @retval None
  89:User/stm32f4xx_it.c ****   */
  90:User/stm32f4xx_it.c **** void MemManage_Handler(void)
  91:User/stm32f4xx_it.c **** {
 112              		.loc 1 91 1 view -0
 113              		.cfi_startproc
 114              		@ Volatile: function does not return.
 115              		@ args = 0, pretend = 0, frame = 0
 116              		@ frame_needed = 0, uses_anonymous_args = 0
 117              		@ link register save eliminated.
 118              	.L10:
  92:User/stm32f4xx_it.c ****   /* Go to infinite loop when Memory Manage exception occurs */
  93:User/stm32f4xx_it.c ****   while (1)
 119              		.loc 1 93 3 discriminator 1 view .LVU21
  94:User/stm32f4xx_it.c ****   {
  95:User/stm32f4xx_it.c ****   }
 120              		.loc 1 95 3 discriminator 1 view .LVU22
 121 0000 FEE7     		b	.L10
 122              		.cfi_endproc
 123              	.LFE128:
 125              		.section	.text.BusFault_Handler,"ax",%progbits
 126              		.align	1
 127              		.global	BusFault_Handler
 128              		.syntax unified
 129              		.thumb
 130              		.thumb_func
 131              		.fpu fpv4-sp-d16
 133              	BusFault_Handler:
 134              	.LFB129:
  96:User/stm32f4xx_it.c **** }
  97:User/stm32f4xx_it.c **** 
  98:User/stm32f4xx_it.c **** /**
ARM GAS  /var/folders/3x/w4njr7bn61lgchzhylxd3k6w0000gn/T//ccBzkz5T.s 			page 5


  99:User/stm32f4xx_it.c ****   * @brief  This function handles Bus Fault exception.
 100:User/stm32f4xx_it.c ****   * @param  None
 101:User/stm32f4xx_it.c ****   * @retval None
 102:User/stm32f4xx_it.c ****   */
 103:User/stm32f4xx_it.c **** void BusFault_Handler(void)
 104:User/stm32f4xx_it.c **** {
 135              		.loc 1 104 1 view -0
 136              		.cfi_startproc
 137              		@ Volatile: function does not return.
 138              		@ args = 0, pretend = 0, frame = 0
 139              		@ frame_needed = 0, uses_anonymous_args = 0
 140              		@ link register save eliminated.
 141              	.L12:
 105:User/stm32f4xx_it.c ****   /* Go to infinite loop when Bus Fault exception occurs */
 106:User/stm32f4xx_it.c ****   while (1)
 142              		.loc 1 106 3 discriminator 1 view .LVU24
 107:User/stm32f4xx_it.c ****   {
 108:User/stm32f4xx_it.c ****   }
 143              		.loc 1 108 3 discriminator 1 view .LVU25
 144 0000 FEE7     		b	.L12
 145              		.cfi_endproc
 146              	.LFE129:
 148              		.section	.text.UsageFault_Handler,"ax",%progbits
 149              		.align	1
 150              		.global	UsageFault_Handler
 151              		.syntax unified
 152              		.thumb
 153              		.thumb_func
 154              		.fpu fpv4-sp-d16
 156              	UsageFault_Handler:
 157              	.LFB130:
 109:User/stm32f4xx_it.c **** }
 110:User/stm32f4xx_it.c **** 
 111:User/stm32f4xx_it.c **** /**
 112:User/stm32f4xx_it.c ****   * @brief  This function handles Usage Fault exception.
 113:User/stm32f4xx_it.c ****   * @param  None
 114:User/stm32f4xx_it.c ****   * @retval None
 115:User/stm32f4xx_it.c ****   */
 116:User/stm32f4xx_it.c **** void UsageFault_Handler(void)
 117:User/stm32f4xx_it.c **** {
 158              		.loc 1 117 1 view -0
 159              		.cfi_startproc
 160              		@ Volatile: function does not return.
 161              		@ args = 0, pretend = 0, frame = 0
 162              		@ frame_needed = 0, uses_anonymous_args = 0
 163              		@ link register save eliminated.
 164              	.L14:
 118:User/stm32f4xx_it.c ****   /* Go to infinite loop when Usage Fault exception occurs */
 119:User/stm32f4xx_it.c ****   while (1)
 165              		.loc 1 119 3 discriminator 1 view .LVU27
 120:User/stm32f4xx_it.c ****   {
 121:User/stm32f4xx_it.c ****   }
 166              		.loc 1 121 3 discriminator 1 view .LVU28
 167 0000 FEE7     		b	.L14
 168              		.cfi_endproc
 169              	.LFE130:
 171              		.section	.text.SVC_Handler,"ax",%progbits
ARM GAS  /var/folders/3x/w4njr7bn61lgchzhylxd3k6w0000gn/T//ccBzkz5T.s 			page 6


 172              		.align	1
 173              		.weak	SVC_Handler
 174              		.syntax unified
 175              		.thumb
 176              		.thumb_func
 177              		.fpu fpv4-sp-d16
 179              	SVC_Handler:
 180              	.LFB131:
 122:User/stm32f4xx_it.c **** }
 123:User/stm32f4xx_it.c **** 
 124:User/stm32f4xx_it.c **** /**
 125:User/stm32f4xx_it.c ****   * @brief  This function handles SVCall exception.
 126:User/stm32f4xx_it.c ****   * @param  None
 127:User/stm32f4xx_it.c ****   * @retval None
 128:User/stm32f4xx_it.c ****   */
 129:User/stm32f4xx_it.c **** __attribute__((weak)) void SVC_Handler(void)
 130:User/stm32f4xx_it.c **** {
 181              		.loc 1 130 1 view -0
 182              		.cfi_startproc
 183              		@ args = 0, pretend = 0, frame = 0
 184              		@ frame_needed = 0, uses_anonymous_args = 0
 185              		@ link register save eliminated.
 131:User/stm32f4xx_it.c **** }
 186              		.loc 1 131 1 view .LVU30
 187 0000 7047     		bx	lr
 188              		.cfi_endproc
 189              	.LFE131:
 191              		.section	.text.DebugMon_Handler,"ax",%progbits
 192              		.align	1
 193              		.global	DebugMon_Handler
 194              		.syntax unified
 195              		.thumb
 196              		.thumb_func
 197              		.fpu fpv4-sp-d16
 199              	DebugMon_Handler:
 200              	.LFB132:
 132:User/stm32f4xx_it.c **** 
 133:User/stm32f4xx_it.c **** /**
 134:User/stm32f4xx_it.c ****   * @brief  This function handles Debug Monitor exception.
 135:User/stm32f4xx_it.c ****   * @param  None
 136:User/stm32f4xx_it.c ****   * @retval None
 137:User/stm32f4xx_it.c ****   */
 138:User/stm32f4xx_it.c **** void DebugMon_Handler(void)
 139:User/stm32f4xx_it.c **** {
 201              		.loc 1 139 1 view -0
 202              		.cfi_startproc
 203              		@ args = 0, pretend = 0, frame = 0
 204              		@ frame_needed = 0, uses_anonymous_args = 0
 205              		@ link register save eliminated.
 140:User/stm32f4xx_it.c **** }
 206              		.loc 1 140 1 view .LVU32
 207 0000 7047     		bx	lr
 208              		.cfi_endproc
 209              	.LFE132:
 211              		.section	.text.PendSV_Handler,"ax",%progbits
 212              		.align	1
 213              		.weak	PendSV_Handler
ARM GAS  /var/folders/3x/w4njr7bn61lgchzhylxd3k6w0000gn/T//ccBzkz5T.s 			page 7


 214              		.syntax unified
 215              		.thumb
 216              		.thumb_func
 217              		.fpu fpv4-sp-d16
 219              	PendSV_Handler:
 220              	.LFB133:
 141:User/stm32f4xx_it.c **** 
 142:User/stm32f4xx_it.c **** /**
 143:User/stm32f4xx_it.c ****   * @brief  This function handles PendSVC exception.
 144:User/stm32f4xx_it.c ****   * @param  None
 145:User/stm32f4xx_it.c ****   * @retval None
 146:User/stm32f4xx_it.c ****   */
 147:User/stm32f4xx_it.c **** __attribute__((weak)) void PendSV_Handler(void)
 148:User/stm32f4xx_it.c **** {
 221              		.loc 1 148 1 view -0
 222              		.cfi_startproc
 223              		@ args = 0, pretend = 0, frame = 0
 224              		@ frame_needed = 0, uses_anonymous_args = 0
 225              		@ link register save eliminated.
 149:User/stm32f4xx_it.c **** }
 226              		.loc 1 149 1 view .LVU34
 227 0000 7047     		bx	lr
 228              		.cfi_endproc
 229              	.LFE133:
 231              		.section	.text.SysTick_Handler,"ax",%progbits
 232              		.align	1
 233              		.weak	SysTick_Handler
 234              		.syntax unified
 235              		.thumb
 236              		.thumb_func
 237              		.fpu fpv4-sp-d16
 239              	SysTick_Handler:
 240              	.LFB134:
 150:User/stm32f4xx_it.c **** 
 151:User/stm32f4xx_it.c **** /**
 152:User/stm32f4xx_it.c ****   * @brief  This function handles SysTick Handler.
 153:User/stm32f4xx_it.c ****   * @param  None
 154:User/stm32f4xx_it.c ****   * @retval None
 155:User/stm32f4xx_it.c ****   */
 156:User/stm32f4xx_it.c **** __attribute__((weak)) void SysTick_Handler(void)
 157:User/stm32f4xx_it.c **** {
 241              		.loc 1 157 1 view -0
 242              		.cfi_startproc
 243              		@ args = 0, pretend = 0, frame = 0
 244              		@ frame_needed = 0, uses_anonymous_args = 0
 245              		@ link register save eliminated.
 158:User/stm32f4xx_it.c ****   
 159:User/stm32f4xx_it.c **** }
 246              		.loc 1 159 1 view .LVU36
 247 0000 7047     		bx	lr
 248              		.cfi_endproc
 249              	.LFE134:
 251              		.section	.rodata.HardFault_Handler.str1.4,"aMS",%progbits,1
 252              		.align	2
 253              	.LC0:
 254 0000 0D0A456E 		.ascii	"\015\012Enter HardFault_Handler, System Halt.\015\012"
 254      74657220 
ARM GAS  /var/folders/3x/w4njr7bn61lgchzhylxd3k6w0000gn/T//ccBzkz5T.s 			page 8


 254      48617264 
 254      4661756C 
 254      745F4861 
 255 0029 00       		.ascii	"\000"
 256              		.text
 257              	.Letext0:
 258              		.file 2 "/Users/gordon/Documents/soft_proj/gcc-arm-none-eabi-8-2018-q4-major/arm-none-eabi/include
 259              		.file 3 "/Users/gordon/Documents/soft_proj/gcc-arm-none-eabi-8-2018-q4-major/arm-none-eabi/include
 260              		.file 4 "Libraries/CMSIS/Include/core_cm4.h"
 261              		.file 5 "Libraries/CMSIS/Device/ST/STM32F4xx/Include/system_stm32f4xx.h"
 262              		.file 6 "Libraries/CMSIS/Device/ST/STM32F4xx/Include/stm32f4xx.h"
 263              		.file 7 "/Users/gordon/Documents/soft_proj/gcc-arm-none-eabi-8-2018-q4-major/arm-none-eabi/include
 264              		.file 8 "/Users/gordon/Documents/soft_proj/gcc-arm-none-eabi-8-2018-q4-major/arm-none-eabi/include
 265              		.file 9 "/Users/gordon/Documents/soft_proj/gcc-arm-none-eabi-8-2018-q4-major/lib/gcc/arm-none-eabi
 266              		.file 10 "/Users/gordon/Documents/soft_proj/gcc-arm-none-eabi-8-2018-q4-major/arm-none-eabi/includ
ARM GAS  /var/folders/3x/w4njr7bn61lgchzhylxd3k6w0000gn/T//ccBzkz5T.s 			page 9

